target datalayout = "e-m:e-p270:32:32-p271:32:32-p272:64:64-i64:64-i128:128-f80:128-n8:16:32:64-S128"
target triple = "x86_64-pc-linux-gnu"

%struct.rb_io = type { i64, ptr, i32, i32, i32, i32, i64, ptr, %struct.rb_io_internal_buffer, %struct.rb_io_internal_buffer, i64, %struct.rb_io_encoding, ptr, %struct.rb_io_internal_buffer, ptr, i64, i32, i32, i64, i64, i64 }
%struct.rb_io_encoding = type { ptr, ptr, i32, i64 }
%struct.rb_io_internal_buffer = type <{ ptr, i32, i32, i32 }>

@rsock_do_not_reverse_lookup = global i32 1, align 4

; Function Attrs: nounwind sspstrong uwtable
define i64 @rsock_init_sock(i64 noundef %0, i32 noundef %1) #0 {
  %3 = alloca i64, align 8
  %4 = alloca i32, align 4
  %5 = alloca ptr, align 8
  store i64 %0, ptr %3, align 8, !tbaa !13
  store i32 %1, ptr %4, align 4, !tbaa !11
  call void @llvm.lifetime.start.p0(i64 8, ptr %5) #21
  %6 = load i32, ptr %4, align 4, !tbaa !11
  call void @rb_update_max_fd(i32 noundef %6)
  br label %7

7:                                                ; preds = %2
  %8 = load i64, ptr %3, align 8, !tbaa !13
  %9 = call ptr @rb_io_make_open_file(i64 noundef %8)
  store ptr %9, ptr %5, align 8, !tbaa !15
  br label %10

10:                                               ; preds = %7
  br label %11

11:                                               ; preds = %10
  %12 = load i32, ptr %4, align 4, !tbaa !11
  %13 = load ptr, ptr %5, align 8, !tbaa !15
  %14 = getelementptr inbounds nuw %struct.rb_io, ptr %13, i32 0, i32 2
  store i32 %12, ptr %14, align 8, !tbaa !17
  %15 = load ptr, ptr %5, align 8, !tbaa !15
  %16 = getelementptr inbounds nuw %struct.rb_io, ptr %15, i32 0, i32 3
  store i32 35, ptr %16, align 4, !tbaa !24
  %17 = load i64, ptr %3, align 8, !tbaa !13
  %18 = call i64 @rb_io_ascii8bit_binmode(i64 noundef %17)
  %19 = load i32, ptr @rsock_do_not_reverse_lookup, align 4, !tbaa !11
  %20 = icmp ne i32 %19, 0
  br i1 %20, label %21, label %26

21:                                               ; preds = %11
  %22 = load ptr, ptr %5, align 8, !tbaa !15
  %23 = getelementptr inbounds nuw %struct.rb_io, ptr %22, i32 0, i32 3
  %24 = load i32, ptr %23, align 4, !tbaa !24
  %25 = or i32 %24, 256
  store i32 %25, ptr %23, align 4, !tbaa !24
  br label %26

26:                                               ; preds = %21, %11
  %27 = load ptr, ptr %5, align 8, !tbaa !15
  call void @rb_io_synchronized(ptr noundef %27)
  %28 = load i64, ptr %3, align 8, !tbaa !13
  call void @llvm.lifetime.end.p0(i64 8, ptr %5) #21
  ret i64 %28
}