; Function Attrs: nounwind sspstrong uwtable
define noundef i64 @rsock_init_sock(i64 noundef returned %0, i32 noundef %1) local_unnamed_addr #0 {
  tail call void @rb_update_max_fd(i32 noundef %1) #10
  %3 = tail call ptr @rb_io_make_open_file(i64 noundef %0) #10
  %4 = getelementptr inbounds nuw i8, ptr %3, i64 16
  store i32 %1, ptr %4, align 8, !tbaa !12
  %5 = getelementptr inbounds nuw i8, ptr %3, i64 20
  store i32 35, ptr %5, align 4, !tbaa !21
  %6 = tail call i64 @rb_io_ascii8bit_binmode(i64 noundef %0) #10
  %7 = load i32, ptr @rsock_do_not_reverse_lookup, align 4, !tbaa !6
  %.not = icmp eq i32 %7, 0
  br i1 %.not, label %11, label %8

8:                                                ; preds = %2
  %9 = load i32, ptr %5, align 4, !tbaa !21
  %10 = or i32 %9, 256
  store i32 %10, ptr %5, align 4, !tbaa !21
  br label %11

11:                                               ; preds = %8, %2
  tail call void @rb_io_synchronized(ptr noundef nonnull %3) #10
  ret i64 %0
}